target datalayout = "e-m:e-p270:32:32-p271:32:32-p272:64:64-i64:64-i128:128-f80:128-n8:16:32:64-S128"
target triple = "x86_64-pc-linux-gnu"

%struct.ALGORITHM = type { i32, ptr, ptr }
%struct.IMPL_CACHE_FLUSH = type { ptr, i64, i32, i8 }

; Function Attrs: inlinehint nounwind uwtable
define internal void @lh_QUERY_doall_IMPL_CACHE_FLUSH(ptr noundef %0, ptr noundef %1, ptr noundef %2) #3 {
  %4 = alloca ptr, align 8
  %5 = alloca ptr, align 8
  %6 = alloca ptr, align 8
  store ptr %0, ptr %4, align 8, !tbaa !74
  store ptr %1, ptr %5, align 8, !tbaa !3
  store ptr %2, ptr %6, align 8, !tbaa !3
  %7 = load ptr, ptr %4, align 8, !tbaa !74
  %8 = load ptr, ptr %5, align 8, !tbaa !3
  %9 = load ptr, ptr %6, align 8, !tbaa !3
  call void @OPENSSL_LH_doall_arg_thunk(ptr noundef %7, ptr noundef @lh_QUERY_doall_IMPL_CACHE_FLUSH_thunk, ptr noundef %8, ptr noundef %9)
  ret void
}

; Function Attrs: inlinehint nounwind uwtable
define internal void @lh_QUERY_set_down_load(ptr noundef %0, i64 noundef %1) #3 {
  %3 = alloca ptr, align 8
  %4 = alloca i64, align 8
  store ptr %0, ptr %3, align 8, !tbaa !74
  store i64 %1, ptr %4, align 8, !tbaa !26
  %5 = load ptr, ptr %3, align 8, !tbaa !74
  %6 = load i64, ptr %4, align 8, !tbaa !26
  call void @OPENSSL_LH_set_down_load(ptr noundef %5, i64 noundef %6)
  ret void
}

; Function Attrs: inlinehint nounwind uwtable
define internal i64 @lh_QUERY_get_down_load(ptr noundef %0) #3 {
  %2 = alloca ptr, align 8
  store ptr %0, ptr %2, align 8, !tbaa !74
  %3 = load ptr, ptr %2, align 8, !tbaa !74
  %4 = call i64 @OPENSSL_LH_get_down_load(ptr noundef %3)
  ret i64 %4
}

; Function Attrs: nounwind uwtable
define internal void @impl_cache_flush_one_alg(i64 noundef %0, ptr noundef %1, ptr noundef %2) #0 {
  %4 = alloca i64, align 8
  %5 = alloca ptr, align 8
  %6 = alloca ptr, align 8
  %7 = alloca ptr, align 8
  %8 = alloca i64, align 8
  store i64 %0, ptr %4, align 8, !tbaa !26
  store ptr %1, ptr %5, align 8, !tbaa !3
  store ptr %2, ptr %6, align 8, !tbaa !3
  call void @llvm.lifetime.start.p0(i64 8, ptr %7) #7
  %9 = load ptr, ptr %6, align 8, !tbaa !3
  store ptr %9, ptr %7, align 8, !tbaa !3
  call void @llvm.lifetime.start.p0(i64 8, ptr %8) #7
  %10 = load ptr, ptr %5, align 8, !tbaa !3
  %11 = getelementptr inbounds nuw %struct.ALGORITHM, ptr %10, i32 0, i32 2
  %12 = load ptr, ptr %11, align 8, !tbaa !31
  %13 = call i64 @lh_QUERY_get_down_load(ptr noundef %12)
  store i64 %13, ptr %8, align 8, !tbaa !26
  %14 = load ptr, ptr %5, align 8, !tbaa !3
  %15 = getelementptr inbounds nuw %struct.ALGORITHM, ptr %14, i32 0, i32 2
  %16 = load ptr, ptr %15, align 8, !tbaa !31
  %17 = load ptr, ptr %7, align 8, !tbaa !3
  %18 = getelementptr inbounds nuw %struct.IMPL_CACHE_FLUSH, ptr %17, i32 0, i32 0
  store ptr %16, ptr %18, align 8, !tbaa !83
  %19 = load ptr, ptr %5, align 8, !tbaa !3
  %20 = getelementptr inbounds nuw %struct.ALGORITHM, ptr %19, i32 0, i32 2
  %21 = load ptr, ptr %20, align 8, !tbaa !31
  call void @lh_QUERY_set_down_load(ptr noundef %21, i64 noundef 0)
  %22 = load ptr, ptr %7, align 8, !tbaa !3
  %23 = getelementptr inbounds nuw %struct.IMPL_CACHE_FLUSH, ptr %22, i32 0, i32 0
  %24 = load ptr, ptr %23, align 8, !tbaa !83
  %25 = load ptr, ptr %7, align 8, !tbaa !3
  call void @lh_QUERY_doall_IMPL_CACHE_FLUSH(ptr noundef %24, ptr noundef @impl_cache_flush_cache, ptr noundef %25)
  %26 = load ptr, ptr %5, align 8, !tbaa !3
  %27 = getelementptr inbounds nuw %struct.ALGORITHM, ptr %26, i32 0, i32 2
  %28 = load ptr, ptr %27, align 8, !tbaa !31
  %29 = load i64, ptr %8, align 8, !tbaa !26
  call void @lh_QUERY_set_down_load(ptr noundef %28, i64 noundef %29)
  call void @llvm.lifetime.end.p0(i64 8, ptr %8) #7
  call void @llvm.lifetime.end.p0(i64 8, ptr %7) #7
  ret void
}