; Function Attrs: nounwind uwtable
define internal void @impl_cache_flush_one_alg(i64 %0, ptr noundef readonly captures(none) %1, ptr noundef initializes((0, 8)) %2) #0 {
  %4 = getelementptr inbounds nuw i8, ptr %1, i64 16
  %5 = load ptr, ptr %4, align 8, !tbaa !22
  %6 = tail call i64 @OPENSSL_LH_get_down_load(ptr noundef %5) #7
  %7 = load ptr, ptr %4, align 8, !tbaa !22
  store ptr %7, ptr %2, align 8, !tbaa !65
  tail call void @OPENSSL_LH_set_down_load(ptr noundef %7, i64 noundef 0) #7
  %8 = load ptr, ptr %2, align 8, !tbaa !65
  tail call void @OPENSSL_LH_doall_arg_thunk(ptr noundef %8, ptr noundef nonnull @lh_QUERY_doall_IMPL_CACHE_FLUSH_thunk, ptr noundef nonnull @impl_cache_flush_cache, ptr noundef nonnull %2) #7
  %9 = load ptr, ptr %4, align 8, !tbaa !22
  tail call void @OPENSSL_LH_set_down_load(ptr noundef %9, i64 noundef %6) #7
  ret void
}